#include <math.h>
#include <stdio.h>
#include <stdlib.h>
#include <string.h>

int main() {
	int i,j,l,k=0;
	double m;
	char a[500],b[500];
	scanf("%lf",&m);
	scanf("%s",a);
	scanf("%s",b);
	j=strlen(a);
	l=strlen(b);
	if(j!=l){
		printf("error");
		return 0;
	}
	for(i=0;i<j;i++){
		if((a[i]!='A'&&a[i]!='G'&&a[i]!='C'&&a[i]!='T')||(b[i]!='A'&&b[i]!='G'&&b[i]!='C'&&b[i]!='T')){
			printf("error");
			return 0;
		}
	}
	for(i=0;i<j;i++){
		if(a[i]==b[i]){
			k++;
		}
	}
	if(1.0*k/j>m){
		printf("yes");
	}
	else{
		printf("no");
	}
	return 0;
}